; Function Attrs: mustprogress uwtable
define void @_ZN6icu_7510UXMLParser5errorEPKcR10UErrorCode(ptr noundef nonnull align 8 dereferenceable(4576) %this, ptr noundef %message, ptr nocapture noundef nonnull align 4 dereferenceable(4) %status) local_unnamed_addr #1 align 2 {
entry:
  %mXMLDecl = getelementptr inbounds i8, ptr %this, i64 8
  %call = tail call noundef nonnull align 8 dereferenceable(64) ptr @_ZNK6icu_7512RegexMatcher5inputEv(ptr noundef nonnull align 8 dereferenceable(336) %mXMLDecl)
  %fPos = getelementptr inbounds i8, ptr %this, i64 4504
  %0 = load i32, ptr %fPos, align 8
  %cmp5 = icmp sgt i32 %0, 0
  br i1 %cmp5, label %_ZNK6icu_7513UnicodeString7indexOfEDsi.exit.lr.ph, label %while.end

_ZNK6icu_7513UnicodeString7indexOfEDsi.exit.lr.ph: ; preds = %entry
  %fUnion.i.i.phi.trans.insert.i = getelementptr inbounds i8, ptr %call, i64 8
  %fLength.i.i.i = getelementptr inbounds i8, ptr %call, i64 12
  br label %_ZNK6icu_7513UnicodeString7indexOfEDsi.exit

_ZNK6icu_7513UnicodeString7indexOfEDsi.exit:      ; preds = %_ZNK6icu_7513UnicodeString7indexOfEDsi.exit.lr.ph, %_ZNK6icu_7513UnicodeString7indexOfEDsi.exit
  %ci.07 = phi i32 [ 0, %_ZNK6icu_7513UnicodeString7indexOfEDsi.exit.lr.ph ], [ %call2.i, %_ZNK6icu_7513UnicodeString7indexOfEDsi.exit ]
  %line.06 = phi i32 [ 0, %_ZNK6icu_7513UnicodeString7indexOfEDsi.exit.lr.ph ], [ %inc, %_ZNK6icu_7513UnicodeString7indexOfEDsi.exit ]
  %add = add nuw nsw i32 %ci.07, 1
  %.pre.i = load i16, ptr %fUnion.i.i.phi.trans.insert.i, align 8
  %cmp.i.i.i.i = icmp slt i16 %.pre.i, 0
  %1 = ashr i16 %.pre.i, 5
  %shr.i.i.i.i = sext i16 %1 to i32
  %2 = load i32, ptr %fLength.i.i.i, align 4
  %cond.i.i.i = select i1 %cmp.i.i.i.i, i32 %2, i32 %shr.i.i.i.i
  %spec.select.i = tail call i32 @llvm.smin.i32(i32 %cond.i.i.i, i32 %add)
  %sub.i = sub nsw i32 %cond.i.i.i, %spec.select.i
  %call2.i = tail call noundef i32 @_ZNK6icu_7513UnicodeString9doIndexOfEDsii(ptr noundef nonnull align 8 dereferenceable(64) %call, i16 noundef zeroext 10, i32 noundef %spec.select.i, i32 noundef %sub.i)
  %inc = add nuw nsw i32 %line.06, 1
  %3 = load i32, ptr %fPos, align 8
  %cmp = icmp slt i32 %call2.i, %3
  %cmp2 = icmp sgt i32 %call2.i, -1
  %4 = and i1 %cmp2, %cmp
  br i1 %4, label %_ZNK6icu_7513UnicodeString7indexOfEDsi.exit, label %while.end, !llvm.loop !9

while.end:                                        ; preds = %_ZNK6icu_7513UnicodeString7indexOfEDsi.exit, %entry
  %line.0.lcssa = phi i32 [ 0, %entry ], [ %inc, %_ZNK6icu_7513UnicodeString7indexOfEDsi.exit ]
  %5 = load ptr, ptr @stderr, align 8
  %call4 = tail call i32 (ptr, ptr, ...) @fprintf(ptr noundef %5, ptr noundef nonnull @.str.22, ptr noundef %message, i32 noundef %line.0.lcssa) #13
  %6 = load i32, ptr %status, align 4
  %cmp.i = icmp sgt i32 %6, 0
  br i1 %cmp.i, label %if.end, label %if.then

if.then:                                          ; preds = %while.end
  store i32 9, ptr %status, align 4
  br label %if.end

if.end:                                           ; preds = %if.then, %while.end
  ret void
}